target datalayout = "e-m:e-p270:32:32-p271:32:32-p272:64:64-i64:64-i128:128-f80:128-n8:16:32:64-S128"
target triple = "x86_64-pc-linux-gnu"

%struct.translation_ctx_st = type { ptr, i32, i32, ptr, i32, i32, ptr, i64, ptr, ptr, [50 x i8], ptr, ptr, i64 }

@.str = private unnamed_addr constant [46 x i8] c"../openssl/crypto/evp/ctrl_params_translate.c\00", align 1
@__func__.get_payload_group_name = private unnamed_addr constant [23 x i8] c"get_payload_group_name\00", align 1

; Function Attrs: nounwind uwtable
define internal i32 @get_payload_group_name(i32 noundef %0, ptr noundef %1, ptr noundef %2) #0 {
  %4 = alloca i32, align 4
  %5 = alloca i32, align 4
  %6 = alloca ptr, align 8
  %7 = alloca ptr, align 8
  %8 = alloca ptr, align 8
  %9 = alloca ptr, align 8
  %10 = alloca i32, align 4
  %11 = alloca ptr, align 8
  %12 = alloca ptr, align 8
  %13 = alloca i32, align 4
  %14 = alloca i32, align 4
  store i32 %0, ptr %5, align 4, !tbaa !8
  store ptr %1, ptr %6, align 8, !tbaa !11
  store ptr %2, ptr %7, align 8, !tbaa !43
  call void @llvm.lifetime.start.p0(i64 8, ptr %8) #9
  %15 = load ptr, ptr %7, align 8, !tbaa !43
  %16 = getelementptr inbounds nuw %struct.translation_ctx_st, ptr %15, i32 0, i32 6
  %17 = load ptr, ptr %16, align 8, !tbaa !40
  store ptr %17, ptr %8, align 8, !tbaa !68
  %18 = load ptr, ptr %7, align 8, !tbaa !43
  %19 = getelementptr inbounds nuw %struct.translation_ctx_st, ptr %18, i32 0, i32 6
  store ptr null, ptr %19, align 8, !tbaa !40
  %20 = load ptr, ptr %8, align 8, !tbaa !68
  %21 = call i32 @EVP_PKEY_get_base_id(ptr noundef %20)
  switch i32 %21, label %55 [
    i32 28, label %22
    i32 408, label %37
  ]

22:                                               ; preds = %3
  call void @llvm.lifetime.start.p0(i64 8, ptr %9) #9
  %23 = load ptr, ptr %8, align 8, !tbaa !68
  %24 = call ptr @EVP_PKEY_get0_DH(ptr noundef %23)
  store ptr %24, ptr %9, align 8, !tbaa !91
  call void @llvm.lifetime.start.p0(i64 4, ptr %10) #9
  %25 = load ptr, ptr %9, align 8, !tbaa !91
  %26 = call i32 @DH_get_nid(ptr noundef %25)
  store i32 %26, ptr %10, align 4, !tbaa !8
  %27 = load i32, ptr %10, align 4, !tbaa !8
  %28 = icmp ne i32 %27, 0
  br i1 %28, label %29, label %36

29:                                               ; preds = %22
  call void @llvm.lifetime.start.p0(i64 8, ptr %11) #9
  %30 = load i32, ptr %10, align 4, !tbaa !8
  %31 = call ptr @ossl_ffc_uid_to_dh_named_group(i32 noundef %30)
  store ptr %31, ptr %11, align 8, !tbaa !93
  %32 = load ptr, ptr %11, align 8, !tbaa !93
  %33 = call ptr @ossl_ffc_named_group_get_name(ptr noundef %32)
  %34 = load ptr, ptr %7, align 8, !tbaa !43
  %35 = getelementptr inbounds nuw %struct.translation_ctx_st, ptr %34, i32 0, i32 6
  store ptr %33, ptr %35, align 8, !tbaa !40
  call void @llvm.lifetime.end.p0(i64 8, ptr %11) #9
  br label %36

36:                                               ; preds = %29, %22
  call void @llvm.lifetime.end.p0(i64 4, ptr %10) #9
  call void @llvm.lifetime.end.p0(i64 8, ptr %9) #9
  br label %56

37:                                               ; preds = %3
  call void @llvm.lifetime.start.p0(i64 8, ptr %12) #9
  %38 = load ptr, ptr %8, align 8, !tbaa !68
  %39 = call ptr @EVP_PKEY_get0_EC_KEY(ptr noundef %38)
  %40 = call ptr @EC_KEY_get0_group(ptr noundef %39)
  store ptr %40, ptr %12, align 8, !tbaa !95
  call void @llvm.lifetime.start.p0(i64 4, ptr %13) #9
  store i32 0, ptr %13, align 4, !tbaa !8
  %41 = load ptr, ptr %12, align 8, !tbaa !95
  %42 = icmp ne ptr %41, null
  br i1 %42, label %43, label %46

43:                                               ; preds = %37
  %44 = load ptr, ptr %12, align 8, !tbaa !95
  %45 = call i32 @EC_GROUP_get_curve_name(ptr noundef %44)
  store i32 %45, ptr %13, align 4, !tbaa !8
  br label %46

46:                                               ; preds = %43, %37
  %47 = load i32, ptr %13, align 4, !tbaa !8
  %48 = icmp ne i32 %47, 0
  br i1 %48, label %49, label %54

49:                                               ; preds = %46
  %50 = load i32, ptr %13, align 4, !tbaa !8
  %51 = call ptr @OSSL_EC_curve_nid2name(i32 noundef %50)
  %52 = load ptr, ptr %7, align 8, !tbaa !43
  %53 = getelementptr inbounds nuw %struct.translation_ctx_st, ptr %52, i32 0, i32 6
  store ptr %51, ptr %53, align 8, !tbaa !40
  br label %54

54:                                               ; preds = %49, %46
  call void @llvm.lifetime.end.p0(i64 4, ptr %13) #9
  call void @llvm.lifetime.end.p0(i64 8, ptr %12) #9
  br label %56

55:                                               ; preds = %3
  call void @ERR_new()
  call void @ERR_set_debug(ptr noundef @.str, i32 noundef 1550, ptr noundef @__func__.get_payload_group_name)
  call void (i32, i32, ptr, ...) @ERR_set_error(i32 noundef 6, i32 noundef 224, ptr noundef null)
  store i32 0, ptr %4, align 4
  store i32 1, ptr %14, align 4
  br label %74

56:                                               ; preds = %54, %36
  %57 = load ptr, ptr %7, align 8, !tbaa !43
  %58 = getelementptr inbounds nuw %struct.translation_ctx_st, ptr %57, i32 0, i32 6
  %59 = load ptr, ptr %58, align 8, !tbaa !40
  %60 = icmp eq ptr %59, null
  br i1 %60, label %61, label %62

61:                                               ; preds = %56
  store i32 1, ptr %4, align 4
  store i32 1, ptr %14, align 4
  br label %74

62:                                               ; preds = %56
  %63 = load ptr, ptr %7, align 8, !tbaa !43
  %64 = getelementptr inbounds nuw %struct.translation_ctx_st, ptr %63, i32 0, i32 6
  %65 = load ptr, ptr %64, align 8, !tbaa !40
  %66 = call i64 @strlen(ptr noundef %65) #10
  %67 = trunc i64 %66 to i32
  %68 = load ptr, ptr %7, align 8, !tbaa !43
  %69 = getelementptr inbounds nuw %struct.translation_ctx_st, ptr %68, i32 0, i32 5
  store i32 %67, ptr %69, align 4, !tbaa !39
  %70 = load i32, ptr %5, align 4, !tbaa !8
  %71 = load ptr, ptr %6, align 8, !tbaa !11
  %72 = load ptr, ptr %7, align 8, !tbaa !43
  %73 = call i32 @default_fixup_args(i32 noundef %70, ptr noundef %71, ptr noundef %72)
  store i32 %73, ptr %4, align 4
  store i32 1, ptr %14, align 4
  br label %74

74:                                               ; preds = %62, %61, %55
  call void @llvm.lifetime.end.p0(i64 8, ptr %8) #9
  %75 = load i32, ptr %4, align 4
  ret i32 %75
}