; Function Attrs: nounwind uwtable
define internal i32 @get_payload_group_name(i32 noundef %0, ptr noundef captures(address_is_null) %1, ptr noundef %2) #0 {
  %4 = getelementptr inbounds nuw i8, ptr %2, i64 32
  %5 = load ptr, ptr %4, align 8, !tbaa !35
  store ptr null, ptr %4, align 8, !tbaa !35
  %6 = tail call i32 @EVP_PKEY_get_base_id(ptr noundef %5) #8
  switch i32 %6, label %20 [
    i32 28, label %7
    i32 408, label %13
  ]

7:                                                ; preds = %3
  %8 = tail call ptr @EVP_PKEY_get0_DH(ptr noundef %5) #8
  %9 = tail call i32 @DH_get_nid(ptr noundef %8) #8
  %.not26 = icmp eq i32 %9, 0
  br i1 %.not26, label %thread-pre-split, label %10

10:                                               ; preds = %7
  %11 = tail call ptr @ossl_ffc_uid_to_dh_named_group(i32 noundef %9) #8
  %12 = tail call ptr @ossl_ffc_named_group_get_name(ptr noundef %11) #8
  store ptr %12, ptr %4, align 8, !tbaa !35
  br label %21

13:                                               ; preds = %3
  %14 = tail call ptr @EVP_PKEY_get0_EC_KEY(ptr noundef %5) #8
  %15 = tail call ptr @EC_KEY_get0_group(ptr noundef %14) #8
  %.not = icmp eq ptr %15, null
  br i1 %.not, label %thread-pre-split, label %16

16:                                               ; preds = %13
  %17 = tail call i32 @EC_GROUP_get_curve_name(ptr noundef nonnull %15) #8
  %.not25 = icmp eq i32 %17, 0
  br i1 %.not25, label %thread-pre-split, label %18

18:                                               ; preds = %16
  %19 = tail call ptr @OSSL_EC_curve_nid2name(i32 noundef %17) #8
  store ptr %19, ptr %4, align 8, !tbaa !35
  br label %21

20:                                               ; preds = %3
  tail call void @ERR_new() #8
  tail call void @ERR_set_debug(ptr noundef nonnull @.str, i32 noundef 1550, ptr noundef nonnull @__func__.get_payload_group_name) #8
  tail call void (i32, i32, ptr, ...) @ERR_set_error(i32 noundef 6, i32 noundef 224, ptr noundef null) #8
  br label %29

thread-pre-split:                                 ; preds = %13, %7, %16
  %.pr = load ptr, ptr %4, align 8, !tbaa !35
  br label %21

21:                                               ; preds = %thread-pre-split, %18, %10
  %22 = phi ptr [ %.pr, %thread-pre-split ], [ %19, %18 ], [ %12, %10 ]
  %23 = icmp eq ptr %22, null
  br i1 %23, label %29, label %24

24:                                               ; preds = %21
  %25 = tail call i64 @strlen(ptr noundef nonnull dereferenceable(1) %22) #9
  %26 = trunc i64 %25 to i32
  %27 = getelementptr inbounds nuw i8, ptr %2, i64 28
  store i32 %26, ptr %27, align 4, !tbaa !34
  %28 = tail call i32 @default_fixup_args(i32 noundef %0, ptr noundef %1, ptr noundef nonnull %2)
  br label %29

29:                                               ; preds = %21, %24, %20
  %.021 = phi i32 [ 0, %20 ], [ %28, %24 ], [ 1, %21 ]
  ret i32 %.021
}